; ModuleID = '33/768.c'
source_filename = "33/768.c"
target datalayout = "e-m:e-p270:32:32-p271:32:32-p272:64:64-i64:64-f80:128-n8:16:32:64-S128"
target triple = "x86_64-pc-linux-gnu"

@.str = private unnamed_addr constant [3 x i8] c"%d\00", align 1
@.str.1 = private unnamed_addr constant [3 x i8] c"T\0A\00", align 1
@.str.2 = private unnamed_addr constant [3 x i8] c"A\0A\00", align 1
@.str.3 = private unnamed_addr constant [3 x i8] c"G\0A\00", align 1
@.str.4 = private unnamed_addr constant [3 x i8] c"C\0A\00", align 1
@.str.5 = private unnamed_addr constant [2 x i8] c"T\00", align 1
@.str.6 = private unnamed_addr constant [2 x i8] c"A\00", align 1
@.str.7 = private unnamed_addr constant [2 x i8] c"G\00", align 1
@.str.8 = private unnamed_addr constant [2 x i8] c"C\00", align 1

; Function Attrs: noinline nounwind uwtable
define dso_local i32 @main() #0 {
  %1 = alloca i32, align 4
  %2 = alloca i32, align 4
  %3 = alloca i32, align 4
  %4 = alloca i32, align 4
  %5 = alloca i32, align 4
  %6 = alloca i8*, align 8
  %7 = alloca [256 x i8], align 16
  store i32 0, i32* %1, align 4
  %8 = call i32 (i8*, ...) @__isoc99_scanf(i8* getelementptr inbounds ([3 x i8], [3 x i8]* @.str, i64 0, i64 0), i32* %2)
  store i32 0, i32* %3, align 4
  br label %9

9:                                                ; preds = %100, %0
  %10 = load i32, i32* %3, align 4
  %11 = load i32, i32* %2, align 4
  %12 = icmp sle i32 %10, %11
  br i1 %12, label %13, label %103

13:                                               ; preds = %9
  %14 = getelementptr inbounds [256 x i8], [256 x i8]* %7, i64 0, i64 0
  %15 = call i32 (i8*, ...) bitcast (i32 (...)* @gets to i32 (i8*, ...)*)(i8* %14)
  %16 = getelementptr inbounds [256 x i8], [256 x i8]* %7, i64 0, i64 0
  %17 = call i64 @strlen(i8* %16) #3
  %18 = trunc i64 %17 to i32
  store i32 %18, i32* %5, align 4
  %19 = getelementptr inbounds [256 x i8], [256 x i8]* %7, i64 0, i64 0
  store i8* %19, i8** %6, align 8
  store i32 0, i32* %4, align 4
  br label %20

20:                                               ; preds = %94, %13
  %21 = load i8*, i8** %6, align 8
  %22 = load i8, i8* %21, align 1
  %23 = icmp ne i8 %22, 0
  br i1 %23, label %24, label %99

24:                                               ; preds = %20
  %25 = load i32, i32* %4, align 4
  %26 = load i32, i32* %5, align 4
  %27 = sub nsw i32 %26, 1
  %28 = icmp eq i32 %25, %27
  br i1 %28, label %29, label %61

29:                                               ; preds = %24
  %30 = load i8*, i8** %6, align 8
  %31 = load i8, i8* %30, align 1
  %32 = sext i8 %31 to i32
  %33 = icmp eq i32 %32, 65
  br i1 %33, label %34, label %36

34:                                               ; preds = %29
  %35 = call i32 (i8*, ...) @printf(i8* getelementptr inbounds ([3 x i8], [3 x i8]* @.str.1, i64 0, i64 0))
  br label %60

36:                                               ; preds = %29
  %37 = load i8*, i8** %6, align 8
  %38 = load i8, i8* %37, align 1
  %39 = sext i8 %38 to i32
  %40 = icmp eq i32 %39, 84
  br i1 %40, label %41, label %43

41:                                               ; preds = %36
  %42 = call i32 (i8*, ...) @printf(i8* getelementptr inbounds ([3 x i8], [3 x i8]* @.str.2, i64 0, i64 0))
  br label %59

43:                                               ; preds = %36
  %44 = load i8*, i8** %6, align 8
  %45 = load i8, i8* %44, align 1
  %46 = sext i8 %45 to i32
  %47 = icmp eq i32 %46, 67
  br i1 %47, label %48, label %50

48:                                               ; preds = %43
  %49 = call i32 (i8*, ...) @printf(i8* getelementptr inbounds ([3 x i8], [3 x i8]* @.str.3, i64 0, i64 0))
  br label %58

50:                                               ; preds = %43
  %51 = load i8*, i8** %6, align 8
  %52 = load i8, i8* %51, align 1
  %53 = sext i8 %52 to i32
  %54 = icmp eq i32 %53, 71
  br i1 %54, label %55, label %57

55:                                               ; preds = %50
  %56 = call i32 (i8*, ...) @printf(i8* getelementptr inbounds ([3 x i8], [3 x i8]* @.str.4, i64 0, i64 0))
  br label %57

57:                                               ; preds = %55, %50
  br label %58

58:                                               ; preds = %57, %48
  br label %59

59:                                               ; preds = %58, %41
  br label %60

60:                                               ; preds = %59, %34
  br label %93

61:                                               ; preds = %24
  %62 = load i8*, i8** %6, align 8
  %63 = load i8, i8* %62, align 1
  %64 = sext i8 %63 to i32
  %65 = icmp eq i32 %64, 65
  br i1 %65, label %66, label %68

66:                                               ; preds = %61
  %67 = call i32 (i8*, ...) @printf(i8* getelementptr inbounds ([2 x i8], [2 x i8]* @.str.5, i64 0, i64 0))
  br label %92

68:                                               ; preds = %61
  %69 = load i8*, i8** %6, align 8
  %70 = load i8, i8* %69, align 1
  %71 = sext i8 %70 to i32
  %72 = icmp eq i32 %71, 84
  br i1 %72, label %73, label %75

73:                                               ; preds = %68
  %74 = call i32 (i8*, ...) @printf(i8* getelementptr inbounds ([2 x i8], [2 x i8]* @.str.6, i64 0, i64 0))
  br label %91

75:                                               ; preds = %68
  %76 = load i8*, i8** %6, align 8
  %77 = load i8, i8* %76, align 1
  %78 = sext i8 %77 to i32
  %79 = icmp eq i32 %78, 67
  br i1 %79, label %80, label %82

80:                                               ; preds = %75
  %81 = call i32 (i8*, ...) @printf(i8* getelementptr inbounds ([2 x i8], [2 x i8]* @.str.7, i64 0, i64 0))
  br label %90

82:                                               ; preds = %75
  %83 = load i8*, i8** %6, align 8
  %84 = load i8, i8* %83, align 1
  %85 = sext i8 %84 to i32
  %86 = icmp eq i32 %85, 71
  br i1 %86, label %87, label %89

87:                                               ; preds = %82
  %88 = call i32 (i8*, ...) @printf(i8* getelementptr inbounds ([2 x i8], [2 x i8]* @.str.8, i64 0, i64 0))
  br label %89

89:                                               ; preds = %87, %82
  br label %90

90:                                               ; preds = %89, %80
  br label %91

91:                                               ; preds = %90, %73
  br label %92

92:                                               ; preds = %91, %66
  br label %93

93:                                               ; preds = %92, %60
  br label %94

94:                                               ; preds = %93
  %95 = load i8*, i8** %6, align 8
  %96 = getelementptr inbounds i8, i8* %95, i32 1
  store i8* %96, i8** %6, align 8
  %97 = load i32, i32* %4, align 4
  %98 = add nsw i32 %97, 1
  store i32 %98, i32* %4, align 4
  br label %20

99:                                               ; preds = %20
  br label %100

100:                                              ; preds = %99
  %101 = load i32, i32* %3, align 4
  %102 = add nsw i32 %101, 1
  store i32 %102, i32* %3, align 4
  br label %9

103:                                              ; preds = %9
  ret i32 0
}

declare dso_local i32 @__isoc99_scanf(i8*, ...) #1

declare dso_local i32 @gets(...) #1

; Function Attrs: nounwind readonly
declare dso_local i64 @strlen(i8*) #2

declare dso_local i32 @printf(i8*, ...) #1


!llvm.module.flags = !{!0}
!llvm.ident = !{!1}

!0 = !{i32 1, !"wchar_size", i32 4}
!1 = !{!"clang version 10.0.0-4ubuntu1 "}
