; ModuleID = 'source-C-CXX/32/768.c'
source_filename = "source-C-CXX/32/768.c"
target datalayout = "e-m:e-p270:32:32-p271:32:32-p272:64:64-i64:64-f80:128-n8:16:32:64-S128"
target triple = "x86_64-pc-linux-gnu"

@.str = private unnamed_addr constant [3 x i8] c"%d\00", align 1
@str = private unnamed_addr constant [2 x i8] c"C\00", align 1
@str.9 = private unnamed_addr constant [2 x i8] c"G\00", align 1
@str.10 = private unnamed_addr constant [2 x i8] c"A\00", align 1
@str.11 = private unnamed_addr constant [2 x i8] c"T\00", align 1

; Function Attrs: nounwind sspstrong uwtable
define dso_local i32 @main() local_unnamed_addr #0 {
  %1 = alloca i32, align 4
  %2 = alloca [256 x i8], align 16
  %3 = bitcast i32* %1 to i8*
  call void @llvm.lifetime.start.p0i8(i64 4, i8* nonnull %3) #6
  %4 = call i32 (i8*, ...) @__isoc99_scanf(i8* getelementptr inbounds ([3 x i8], [3 x i8]* @.str, i64 0, i64 0), i32* nonnull %1)
  %5 = getelementptr inbounds [256 x i8], [256 x i8]* %2, i64 0, i64 0
  %6 = load i32, i32* %1, align 4, !tbaa !5
  %7 = icmp slt i32 %6, 0
  br i1 %7, label %48, label %8

8:                                                ; preds = %0, %44
  %9 = phi i32 [ %45, %44 ], [ 0, %0 ]
  call void @llvm.lifetime.start.p0i8(i64 256, i8* nonnull %5) #6
  %10 = call i32 (i8*, ...) bitcast (i32 (...)* @gets to i32 (i8*, ...)*)(i8* nonnull %5) #6
  %11 = call i64 @strlen(i8* noundef nonnull %5) #7
  %12 = trunc i64 %11 to i32
  %13 = add nsw i32 %12, -1
  %14 = load i8, i8* %5, align 16, !tbaa !9
  %15 = icmp eq i8 %14, 0
  br i1 %15, label %44, label %16

16:                                               ; preds = %8, %39
  %17 = phi i8 [ %42, %39 ], [ %14, %8 ]
  %18 = phi i8* [ %40, %39 ], [ %5, %8 ]
  %19 = phi i32 [ %41, %39 ], [ 0, %8 ]
  %20 = icmp eq i32 %19, %13
  br i1 %20, label %21, label %30

21:                                               ; preds = %16
  switch i8 %17, label %39 [
    i8 65, label %22
    i8 84, label %24
    i8 67, label %26
    i8 71, label %28
  ]

22:                                               ; preds = %21
  %23 = call i32 @puts(i8* nonnull dereferenceable(1) getelementptr inbounds ([2 x i8], [2 x i8]* @str.11, i64 0, i64 0))
  br label %39

24:                                               ; preds = %21
  %25 = call i32 @puts(i8* nonnull dereferenceable(1) getelementptr inbounds ([2 x i8], [2 x i8]* @str.10, i64 0, i64 0))
  br label %39

26:                                               ; preds = %21
  %27 = call i32 @puts(i8* nonnull dereferenceable(1) getelementptr inbounds ([2 x i8], [2 x i8]* @str.9, i64 0, i64 0))
  br label %39

28:                                               ; preds = %21
  %29 = call i32 @puts(i8* nonnull dereferenceable(1) getelementptr inbounds ([2 x i8], [2 x i8]* @str, i64 0, i64 0))
  br label %39

30:                                               ; preds = %16
  switch i8 %17, label %39 [
    i8 65, label %31
    i8 84, label %33
    i8 67, label %35
    i8 71, label %37
  ]

31:                                               ; preds = %30
  %32 = call i32 @putchar(i32 84)
  br label %39

33:                                               ; preds = %30
  %34 = call i32 @putchar(i32 65)
  br label %39

35:                                               ; preds = %30
  %36 = call i32 @putchar(i32 71)
  br label %39

37:                                               ; preds = %30
  %38 = call i32 @putchar(i32 67)
  br label %39

39:                                               ; preds = %30, %21, %24, %28, %26, %22, %33, %37, %35, %31
  %40 = getelementptr inbounds i8, i8* %18, i64 1
  %41 = add nuw nsw i32 %19, 1
  %42 = load i8, i8* %40, align 1, !tbaa !9
  %43 = icmp eq i8 %42, 0
  br i1 %43, label %44, label %16, !llvm.loop !10

44:                                               ; preds = %39, %8
  call void @llvm.lifetime.end.p0i8(i64 256, i8* nonnull %5) #6
  %45 = add nuw nsw i32 %9, 1
  %46 = load i32, i32* %1, align 4, !tbaa !5
  %47 = icmp slt i32 %9, %46
  br i1 %47, label %8, label %48, !llvm.loop !12

48:                                               ; preds = %44, %0
  call void @llvm.lifetime.end.p0i8(i64 4, i8* nonnull %3) #6
  ret i32 0
}

; Function Attrs: argmemonly mustprogress nofree nosync nounwind willreturn
declare void @llvm.lifetime.start.p0i8(i64 immarg, i8* nocapture) #1

; Function Attrs: nofree nounwind
declare noundef i32 @__isoc99_scanf(i8* nocapture noundef readonly, ...) local_unnamed_addr #2

declare i32 @gets(...) local_unnamed_addr #3

; Function Attrs: argmemonly mustprogress nofree nounwind readonly willreturn
declare i64 @strlen(i8* nocapture) local_unnamed_addr #4

; Function Attrs: argmemonly mustprogress nofree nosync nounwind willreturn
declare void @llvm.lifetime.end.p0i8(i64 immarg, i8* nocapture) #1

; Function Attrs: nofree nounwind
declare noundef i32 @putchar(i32 noundef) local_unnamed_addr #5

; Function Attrs: nofree nounwind
declare noundef i32 @puts(i8* nocapture noundef readonly) local_unnamed_addr #5


!llvm.module.flags = !{!0, !1, !2, !3}
!llvm.ident = !{!4}

!0 = !{i32 1, !"wchar_size", i32 4}
!1 = !{i32 7, !"PIC Level", i32 2}
!2 = !{i32 7, !"PIE Level", i32 2}
!3 = !{i32 7, !"uwtable", i32 1}
!4 = !{!"clang version 13.0.0"}
!5 = !{!6, !6, i64 0}
!6 = !{!"int", !7, i64 0}
!7 = !{!"omnipotent char", !8, i64 0}
!8 = !{!"Simple C/C++ TBAA"}
!9 = !{!7, !7, i64 0}
!10 = distinct !{!10, !11}
!11 = !{!"llvm.loop.mustprogress"}
!12 = distinct !{!12, !11}
